; Function Attrs: mustprogress nofree norecurse nosync nounwind willreturn memory(none) uwtable
define noundef ptr @_ZN5ZXing10DataMatrix10SymbolInfo6LookupEi(i32 noundef %0) local_unnamed_addr #0 align 2 {
  br label %.split.split.split.i.i

.split.split.split.i.i:                           ; preds = %select.unfold.i.i, %1
  %.02937.i.i = phi i64 [ %5, %select.unfold.i.i ], [ 0, %1 ]
  %2 = getelementptr inbounds nuw %"class.ZXing::DataMatrix::SymbolInfo", ptr @_ZN5ZXing10DataMatrixL12PROD_SYMBOLSE, i64 %.02937.i.i
  %3 = getelementptr inbounds nuw i8, ptr %2, i64 4
  %4 = load i32, ptr %3, align 4, !tbaa !3
  %.not.i.i = icmp sgt i32 %0, %4
  br i1 %.not.i.i, label %select.unfold.i.i, label %_ZN5ZXing10DataMatrix10SymbolInfo6LookupEiNS0_11SymbolShapeE.exit

select.unfold.i.i:                                ; preds = %.split.split.split.i.i
  %5 = add nuw nsw i64 %.02937.i.i, 1
  %exitcond65.i.i = icmp eq i64 %5, 30
  br i1 %exitcond65.i.i, label %_ZN5ZXing10DataMatrix10SymbolInfo6LookupEiNS0_11SymbolShapeE.exit, label %.split.split.split.i.i, !llvm.loop !9

_ZN5ZXing10DataMatrix10SymbolInfo6LookupEiNS0_11SymbolShapeE.exit: ; preds = %.split.split.split.i.i, %select.unfold.i.i
  %.us-phi.i.i = phi ptr [ %2, %.split.split.split.i.i ], [ null, %select.unfold.i.i ]
  ret ptr %.us-phi.i.i
}